target datalayout = "e-m:e-p270:32:32-p271:32:32-p272:64:64-i64:64-i128:128-f80:128-n8:16:32:64-S128"
target triple = "x86_64-pc-linux-gnu"

%struct.AVFilterContext = type { ptr, ptr, ptr, ptr, ptr, i32, ptr, ptr, i32, ptr, ptr, i32, i32, ptr, ptr, ptr, ptr, i32, ptr, i32, i32 }
%struct.AudioIIRContext = type { ptr, ptr, ptr, ptr, double, double, double, i32, i32, i32, i32, i32, i32, i32, i32, %struct.AVRational, ptr, ptr, i32, i32, ptr }
%struct.AVRational = type { i32, i32 }
%struct.IIRChannel = type { [2 x i32], [2 x ptr], double, [2 x ptr], double, ptr, i32 }
%struct.AVFilterFormatsConfig = type { ptr, ptr, ptr, ptr, ptr }
%struct.ThreadData = type { ptr, ptr }
%struct.AVFilterLink = type { ptr, ptr, ptr, ptr, i32, i32, i32, i32, %struct.AVRational, i32, i32, i32, %struct.AVChannelLayout, %struct.AVRational, ptr, i32, %struct.AVFilterFormatsConfig, %struct.AVFilterFormatsConfig }
%struct.AVChannelLayout = type { i32, i32, %union.anon.1, ptr }
%union.anon.1 = type { i64 }
%struct.AVFrame = type { [8 x ptr], [8 x i32], ptr, i32, i32, i32, i32, i32, %struct.AVRational, i64, i64, %struct.AVRational, i32, ptr, i32, i32, [8 x ptr], ptr, i32, ptr, i32, i32, i32, i32, i32, i32, i32, i64, ptr, i32, ptr, ptr, i64, i64, i64, i64, ptr, %struct.AVChannelLayout, i64 }

@.str.3 = private unnamed_addr constant [51 x i8] c"Channel %d clipping %d times. Please reduce gain.\0A\00", align 1

; Function Attrs: nounwind uwtable
define internal i32 @filter_frame(ptr noundef %0, ptr noundef %1) #1 {
  %3 = alloca i32, align 4
  %4 = alloca ptr, align 8
  %5 = alloca ptr, align 8
  %6 = alloca ptr, align 8
  %7 = alloca ptr, align 8
  %8 = alloca ptr, align 8
  %9 = alloca %struct.ThreadData, align 8
  %10 = alloca ptr, align 8
  %11 = alloca i32, align 4
  %12 = alloca i32, align 4
  %13 = alloca i32, align 4
  %14 = alloca ptr, align 8
  %15 = alloca i64, align 8
  %16 = alloca i64, align 8
  %17 = alloca ptr, align 8
  store ptr %0, ptr %4, align 8, !tbaa !58
  store ptr %1, ptr %5, align 8, !tbaa !60
  call void @llvm.lifetime.start.p0(i64 8, ptr %6) #12
  %18 = load ptr, ptr %4, align 8, !tbaa !58
  %19 = getelementptr inbounds nuw %struct.AVFilterLink, ptr %18, i32 0, i32 2
  %20 = load ptr, ptr %19, align 8, !tbaa !61
  store ptr %20, ptr %6, align 8, !tbaa !4
  call void @llvm.lifetime.start.p0(i64 8, ptr %7) #12
  %21 = load ptr, ptr %6, align 8, !tbaa !4
  %22 = getelementptr inbounds nuw %struct.AVFilterContext, ptr %21, i32 0, i32 9
  %23 = load ptr, ptr %22, align 8, !tbaa !9
  store ptr %23, ptr %7, align 8, !tbaa !22
  call void @llvm.lifetime.start.p0(i64 8, ptr %8) #12
  %24 = load ptr, ptr %6, align 8, !tbaa !4
  %25 = getelementptr inbounds nuw %struct.AVFilterContext, ptr %24, i32 0, i32 7
  %26 = load ptr, ptr %25, align 8, !tbaa !67
  %27 = getelementptr inbounds ptr, ptr %26, i64 0
  %28 = load ptr, ptr %27, align 8, !tbaa !58
  store ptr %28, ptr %8, align 8, !tbaa !58
  call void @llvm.lifetime.start.p0(i64 16, ptr %9) #12
  call void @llvm.lifetime.start.p0(i64 8, ptr %10) #12
  call void @llvm.lifetime.start.p0(i64 4, ptr %11) #12
  call void @llvm.lifetime.start.p0(i64 4, ptr %12) #12
  %29 = load ptr, ptr %5, align 8, !tbaa !60
  %30 = call i32 @av_frame_is_writable(ptr noundef %29)
  %31 = icmp ne i32 %30, 0
  br i1 %31, label %32, label %39

32:                                               ; preds = %2
  %33 = load ptr, ptr %7, align 8, !tbaa !22
  %34 = getelementptr inbounds nuw %struct.AudioIIRContext, ptr %33, i32 0, i32 9
  %35 = load i32, ptr %34, align 8, !tbaa !68
  %36 = icmp ne i32 %35, 2
  br i1 %36, label %37, label %39

37:                                               ; preds = %32
  %38 = load ptr, ptr %5, align 8, !tbaa !60
  store ptr %38, ptr %10, align 8, !tbaa !60
  br label %52

39:                                               ; preds = %32, %2
  %40 = load ptr, ptr %8, align 8, !tbaa !58
  %41 = load ptr, ptr %5, align 8, !tbaa !60
  %42 = getelementptr inbounds nuw %struct.AVFrame, ptr %41, i32 0, i32 5
  %43 = load i32, ptr %42, align 8, !tbaa !69
  %44 = call ptr @ff_get_audio_buffer(ptr noundef %40, i32 noundef %43)
  store ptr %44, ptr %10, align 8, !tbaa !60
  %45 = load ptr, ptr %10, align 8, !tbaa !60
  %46 = icmp ne ptr %45, null
  br i1 %46, label %48, label %47

47:                                               ; preds = %39
  call void @av_frame_free(ptr noundef %5)
  store i32 -12, ptr %3, align 4
  store i32 1, ptr %13, align 4
  br label %176

48:                                               ; preds = %39
  %49 = load ptr, ptr %10, align 8, !tbaa !60
  %50 = load ptr, ptr %5, align 8, !tbaa !60
  %51 = call i32 @av_frame_copy_props(ptr noundef %49, ptr noundef %50)
  br label %52

52:                                               ; preds = %48, %37
  %53 = load ptr, ptr %5, align 8, !tbaa !60
  %54 = getelementptr inbounds nuw %struct.ThreadData, ptr %9, i32 0, i32 0
  store ptr %53, ptr %54, align 8, !tbaa !75
  %55 = load ptr, ptr %10, align 8, !tbaa !60
  %56 = getelementptr inbounds nuw %struct.ThreadData, ptr %9, i32 0, i32 1
  store ptr %55, ptr %56, align 8, !tbaa !77
  %57 = load ptr, ptr %6, align 8, !tbaa !4
  %58 = load ptr, ptr %7, align 8, !tbaa !22
  %59 = getelementptr inbounds nuw %struct.AudioIIRContext, ptr %58, i32 0, i32 20
  %60 = load ptr, ptr %59, align 8, !tbaa !78
  %61 = load ptr, ptr %8, align 8, !tbaa !58
  %62 = getelementptr inbounds nuw %struct.AVFilterLink, ptr %61, i32 0, i32 12
  %63 = getelementptr inbounds nuw %struct.AVChannelLayout, ptr %62, i32 0, i32 1
  %64 = load i32, ptr %63, align 4, !tbaa !79
  %65 = call i32 @ff_filter_execute(ptr noundef %57, ptr noundef %60, ptr noundef %9, ptr noundef null, i32 noundef %64)
  store i32 0, ptr %11, align 4, !tbaa !43
  br label %66

66:                                               ; preds = %102, %52
  %67 = load i32, ptr %11, align 4, !tbaa !43
  %68 = load ptr, ptr %8, align 8, !tbaa !58
  %69 = getelementptr inbounds nuw %struct.AVFilterLink, ptr %68, i32 0, i32 12
  %70 = getelementptr inbounds nuw %struct.AVChannelLayout, ptr %69, i32 0, i32 1
  %71 = load i32, ptr %70, align 4, !tbaa !79
  %72 = icmp slt i32 %67, %71
  br i1 %72, label %73, label %105

73:                                               ; preds = %66
  %74 = load ptr, ptr %7, align 8, !tbaa !22
  %75 = getelementptr inbounds nuw %struct.AudioIIRContext, ptr %74, i32 0, i32 17
  %76 = load ptr, ptr %75, align 8, !tbaa !47
  %77 = load i32, ptr %11, align 4, !tbaa !43
  %78 = sext i32 %77 to i64
  %79 = getelementptr inbounds %struct.IIRChannel, ptr %76, i64 %78
  %80 = getelementptr inbounds nuw %struct.IIRChannel, ptr %79, i32 0, i32 6
  %81 = load i32, ptr %80, align 8, !tbaa !80
  %82 = icmp sgt i32 %81, 0
  br i1 %82, label %83, label %94

83:                                               ; preds = %73
  %84 = load ptr, ptr %6, align 8, !tbaa !4
  %85 = load i32, ptr %11, align 4, !tbaa !43
  %86 = load ptr, ptr %7, align 8, !tbaa !22
  %87 = getelementptr inbounds nuw %struct.AudioIIRContext, ptr %86, i32 0, i32 17
  %88 = load ptr, ptr %87, align 8, !tbaa !47
  %89 = load i32, ptr %11, align 4, !tbaa !43
  %90 = sext i32 %89 to i64
  %91 = getelementptr inbounds %struct.IIRChannel, ptr %88, i64 %90
  %92 = getelementptr inbounds nuw %struct.IIRChannel, ptr %91, i32 0, i32 6
  %93 = load i32, ptr %92, align 8, !tbaa !80
  call void (ptr, i32, ptr, ...) @av_log(ptr noundef %84, i32 noundef 24, ptr noundef @.str.3, i32 noundef %85, i32 noundef %93)
  br label %94

94:                                               ; preds = %83, %73
  %95 = load ptr, ptr %7, align 8, !tbaa !22
  %96 = getelementptr inbounds nuw %struct.AudioIIRContext, ptr %95, i32 0, i32 17
  %97 = load ptr, ptr %96, align 8, !tbaa !47
  %98 = load i32, ptr %11, align 4, !tbaa !43
  %99 = sext i32 %98 to i64
  %100 = getelementptr inbounds %struct.IIRChannel, ptr %97, i64 %99
  %101 = getelementptr inbounds nuw %struct.IIRChannel, ptr %100, i32 0, i32 6
  store i32 0, ptr %101, align 8, !tbaa !80
  br label %102

102:                                              ; preds = %94
  %103 = load i32, ptr %11, align 4, !tbaa !43
  %104 = add nsw i32 %103, 1
  store i32 %104, ptr %11, align 4, !tbaa !43
  br label %66, !llvm.loop !83

105:                                              ; preds = %66
  %106 = load ptr, ptr %5, align 8, !tbaa !60
  %107 = load ptr, ptr %10, align 8, !tbaa !60
  %108 = icmp ne ptr %106, %107
  br i1 %108, label %109, label %110

109:                                              ; preds = %105
  call void @av_frame_free(ptr noundef %5)
  br label %110

110:                                              ; preds = %109, %105
  %111 = load ptr, ptr %7, align 8, !tbaa !22
  %112 = getelementptr inbounds nuw %struct.AudioIIRContext, ptr %111, i32 0, i32 11
  %113 = load i32, ptr %112, align 8, !tbaa !46
  %114 = icmp ne i32 %113, 0
  br i1 %114, label %115, label %172

115:                                              ; preds = %110
  call void @llvm.lifetime.start.p0(i64 8, ptr %14) #12
  %116 = load ptr, ptr %6, align 8, !tbaa !4
  %117 = getelementptr inbounds nuw %struct.AVFilterContext, ptr %116, i32 0, i32 7
  %118 = load ptr, ptr %117, align 8, !tbaa !67
  %119 = getelementptr inbounds ptr, ptr %118, i64 1
  %120 = load ptr, ptr %119, align 8, !tbaa !58
  store ptr %120, ptr %14, align 8, !tbaa !58
  call void @llvm.lifetime.start.p0(i64 8, ptr %15) #12
  %121 = load ptr, ptr %7, align 8, !tbaa !22
  %122 = getelementptr inbounds nuw %struct.AudioIIRContext, ptr %121, i32 0, i32 16
  %123 = load ptr, ptr %122, align 8, !tbaa !84
  %124 = getelementptr inbounds nuw %struct.AVFrame, ptr %123, i32 0, i32 9
  %125 = load i64, ptr %124, align 8, !tbaa !85
  store i64 %125, ptr %15, align 8, !tbaa !86
  call void @llvm.lifetime.start.p0(i64 8, ptr %16) #12
  %126 = load ptr, ptr %10, align 8, !tbaa !60
  %127 = getelementptr inbounds nuw %struct.AVFrame, ptr %126, i32 0, i32 9
  %128 = load i64, ptr %127, align 8, !tbaa !85
  %129 = load ptr, ptr %6, align 8, !tbaa !4
  %130 = getelementptr inbounds nuw %struct.AVFilterContext, ptr %129, i32 0, i32 4
  %131 = load ptr, ptr %130, align 8, !tbaa !87
  %132 = getelementptr inbounds ptr, ptr %131, i64 0
  %133 = load ptr, ptr %132, align 8, !tbaa !58
  %134 = getelementptr inbounds nuw %struct.AVFilterLink, ptr %133, i32 0, i32 13
  %135 = load ptr, ptr %14, align 8, !tbaa !58
  %136 = getelementptr inbounds nuw %struct.AVFilterLink, ptr %135, i32 0, i32 13
  %137 = load i64, ptr %134, align 8
  %138 = load i64, ptr %136, align 8
  %139 = call i64 @av_rescale_q(i64 noundef %128, i64 %137, i64 %138) #13
  store i64 %139, ptr %16, align 8, !tbaa !86
  %140 = load i64, ptr %16, align 8, !tbaa !86
  %141 = load i64, ptr %15, align 8, !tbaa !86
  %142 = icmp sgt i64 %140, %141
  br i1 %142, label %143, label %168

143:                                              ; preds = %115
  call void @llvm.lifetime.start.p0(i64 8, ptr %17) #12
  %144 = load i64, ptr %16, align 8, !tbaa !86
  %145 = load ptr, ptr %7, align 8, !tbaa !22
  %146 = getelementptr inbounds nuw %struct.AudioIIRContext, ptr %145, i32 0, i32 16
  %147 = load ptr, ptr %146, align 8, !tbaa !84
  %148 = getelementptr inbounds nuw %struct.AVFrame, ptr %147, i32 0, i32 9
  store i64 %144, ptr %148, align 8, !tbaa !85
  %149 = load ptr, ptr %7, align 8, !tbaa !22
  %150 = getelementptr inbounds nuw %struct.AudioIIRContext, ptr %149, i32 0, i32 16
  %151 = load ptr, ptr %150, align 8, !tbaa !84
  %152 = call ptr @av_frame_clone(ptr noundef %151)
  store ptr %152, ptr %17, align 8, !tbaa !60
  %153 = load ptr, ptr %17, align 8, !tbaa !60
  %154 = icmp ne ptr %153, null
  br i1 %154, label %156, label %155

155:                                              ; preds = %143
  store i32 -12, ptr %3, align 4
  store i32 1, ptr %13, align 4
  br label %165

156:                                              ; preds = %143
  %157 = load ptr, ptr %14, align 8, !tbaa !58
  %158 = load ptr, ptr %17, align 8, !tbaa !60
  %159 = call i32 @ff_filter_frame(ptr noundef %157, ptr noundef %158)
  store i32 %159, ptr %12, align 4, !tbaa !43
  %160 = load i32, ptr %12, align 4, !tbaa !43
  %161 = icmp slt i32 %160, 0
  br i1 %161, label %162, label %164

162:                                              ; preds = %156
  %163 = load i32, ptr %12, align 4, !tbaa !43
  store i32 %163, ptr %3, align 4
  store i32 1, ptr %13, align 4
  br label %165

164:                                              ; preds = %156
  store i32 0, ptr %13, align 4
  br label %165

165:                                              ; preds = %164, %162, %155
  call void @llvm.lifetime.end.p0(i64 8, ptr %17) #12
  %166 = load i32, ptr %13, align 4
  switch i32 %166, label %169 [
    i32 0, label %167
  ]

167:                                              ; preds = %165
  br label %168

168:                                              ; preds = %167, %115
  store i32 0, ptr %13, align 4
  br label %169

169:                                              ; preds = %168, %165
  call void @llvm.lifetime.end.p0(i64 8, ptr %16) #12
  call void @llvm.lifetime.end.p0(i64 8, ptr %15) #12
  call void @llvm.lifetime.end.p0(i64 8, ptr %14) #12
  %170 = load i32, ptr %13, align 4
  switch i32 %170, label %176 [
    i32 0, label %171
  ]

171:                                              ; preds = %169
  br label %172

172:                                              ; preds = %171, %110
  %173 = load ptr, ptr %8, align 8, !tbaa !58
  %174 = load ptr, ptr %10, align 8, !tbaa !60
  %175 = call i32 @ff_filter_frame(ptr noundef %173, ptr noundef %174)
  store i32 %175, ptr %3, align 4
  store i32 1, ptr %13, align 4
  br label %176

176:                                              ; preds = %172, %169, %47
  call void @llvm.lifetime.end.p0(i64 4, ptr %12) #12
  call void @llvm.lifetime.end.p0(i64 4, ptr %11) #12
  call void @llvm.lifetime.end.p0(i64 8, ptr %10) #12
  call void @llvm.lifetime.end.p0(i64 16, ptr %9) #12
  call void @llvm.lifetime.end.p0(i64 8, ptr %8) #12
  call void @llvm.lifetime.end.p0(i64 8, ptr %7) #12
  call void @llvm.lifetime.end.p0(i64 8, ptr %6) #12
  %177 = load i32, ptr %3, align 4
  ret i32 %177
}