; Function Attrs: nounwind uwtable
define internal i32 @filter_frame(ptr noundef readonly captures(none) %0, ptr noundef %1) #1 {
  %3 = alloca ptr, align 8
  %4 = alloca %struct.ThreadData, align 8
  store ptr %1, ptr %3, align 8, !tbaa !40
  %5 = getelementptr inbounds nuw i8, ptr %0, i64 16
  %6 = load ptr, ptr %5, align 8, !tbaa !41
  %7 = getelementptr inbounds nuw i8, ptr %6, i64 72
  %8 = load ptr, ptr %7, align 8, !tbaa !4
  %9 = getelementptr inbounds nuw i8, ptr %6, i64 56
  %10 = load ptr, ptr %9, align 8, !tbaa !49
  %11 = load ptr, ptr %10, align 8, !tbaa !50
  call void @llvm.lifetime.start.p0(i64 16, ptr nonnull %4) #14
  %12 = tail call i32 @av_frame_is_writable(ptr noundef %1) #14
  %.not = icmp eq i32 %12, 0
  br i1 %.not, label %16, label %13

13:                                               ; preds = %2
  %14 = getelementptr inbounds nuw i8, ptr %8, i64 64
  %15 = load i32, ptr %14, align 8, !tbaa !52
  %.not53 = icmp eq i32 %15, 2
  br i1 %.not53, label %16, label %23

16:                                               ; preds = %13, %2
  %17 = getelementptr inbounds nuw i8, ptr %1, i64 112
  %18 = load i32, ptr %17, align 8, !tbaa !53
  %19 = tail call ptr @ff_get_audio_buffer(ptr noundef %11, i32 noundef %18) #14
  %.not54 = icmp eq ptr %19, null
  br i1 %.not54, label %20, label %21

20:                                               ; preds = %16
  call void @av_frame_free(ptr noundef nonnull %3) #14
  br label %.thread61

21:                                               ; preds = %16
  %22 = tail call i32 @av_frame_copy_props(ptr noundef nonnull %19, ptr noundef nonnull %1) #14
  br label %23

23:                                               ; preds = %13, %21
  %.044 = phi ptr [ %19, %21 ], [ %1, %13 ]
  store ptr %1, ptr %4, align 8, !tbaa !59
  %24 = getelementptr inbounds nuw i8, ptr %4, i64 8
  store ptr %.044, ptr %24, align 8, !tbaa !61
  %25 = getelementptr inbounds nuw i8, ptr %8, i64 120
  %26 = load ptr, ptr %25, align 8, !tbaa !62
  %27 = getelementptr inbounds nuw i8, ptr %11, i64 76
  %28 = load i32, ptr %27, align 4, !tbaa !63
  %29 = call i32 @ff_filter_execute(ptr noundef nonnull %6, ptr noundef %26, ptr noundef nonnull %4, ptr noundef null, i32 noundef %28) #14
  %30 = load i32, ptr %27, align 4, !tbaa !63
  %31 = icmp sgt i32 %30, 0
  br i1 %31, label %.lr.ph, label %._crit_edge

.lr.ph:                                           ; preds = %23
  %32 = getelementptr inbounds nuw i8, ptr %8, i64 104
  %.pre = load ptr, ptr %32, align 8, !tbaa !34
  br label %33

33:                                               ; preds = %.lr.ph, %41
  %34 = phi i32 [ %30, %.lr.ph ], [ %42, %41 ]
  %35 = phi ptr [ %.pre, %.lr.ph ], [ %43, %41 ]
  %indvars.iv = phi i64 [ 0, %.lr.ph ], [ %indvars.iv.next, %41 ]
  %36 = getelementptr inbounds nuw %struct.IIRChannel, ptr %35, i64 %indvars.iv, i32 6
  %37 = load i32, ptr %36, align 8, !tbaa !64
  %38 = icmp sgt i32 %37, 0
  br i1 %38, label %39, label %41

39:                                               ; preds = %33
  %40 = trunc nuw nsw i64 %indvars.iv to i32
  call void (ptr, i32, ptr, ...) @av_log(ptr noundef nonnull %6, i32 noundef 24, ptr noundef nonnull @.str.3, i32 noundef %40, i32 noundef %37) #14
  %.pre66 = load ptr, ptr %32, align 8, !tbaa !34
  %.pre67 = load i32, ptr %27, align 4, !tbaa !63
  br label %41

41:                                               ; preds = %39, %33
  %42 = phi i32 [ %.pre67, %39 ], [ %34, %33 ]
  %43 = phi ptr [ %.pre66, %39 ], [ %35, %33 ]
  %44 = getelementptr inbounds nuw %struct.IIRChannel, ptr %43, i64 %indvars.iv, i32 6
  store i32 0, ptr %44, align 8, !tbaa !64
  %indvars.iv.next = add nuw nsw i64 %indvars.iv, 1
  %45 = sext i32 %42 to i64
  %46 = icmp slt i64 %indvars.iv.next, %45
  br i1 %46, label %33, label %._crit_edge, !llvm.loop !67

._crit_edge:                                      ; preds = %41, %23
  %47 = load ptr, ptr %3, align 8, !tbaa !40
  %.not55 = icmp eq ptr %47, %.044
  br i1 %.not55, label %49, label %48

48:                                               ; preds = %._crit_edge
  call void @av_frame_free(ptr noundef nonnull %3) #14
  br label %49

49:                                               ; preds = %48, %._crit_edge
  %50 = getelementptr inbounds nuw i8, ptr %8, i64 72
  %51 = load i32, ptr %50, align 8, !tbaa !33
  %.not56 = icmp eq i32 %51, 0
  br i1 %.not56, label %.thread, label %52

52:                                               ; preds = %49
  %53 = load ptr, ptr %9, align 8, !tbaa !49
  %54 = getelementptr inbounds nuw i8, ptr %53, i64 8
  %55 = load ptr, ptr %54, align 8, !tbaa !50
  %56 = getelementptr inbounds nuw i8, ptr %8, i64 96
  %57 = load ptr, ptr %56, align 8, !tbaa !68
  %58 = getelementptr inbounds nuw i8, ptr %57, i64 136
  %59 = load i64, ptr %58, align 8, !tbaa !69
  %60 = getelementptr inbounds nuw i8, ptr %.044, i64 136
  %61 = load i64, ptr %60, align 8, !tbaa !69
  %62 = getelementptr inbounds nuw i8, ptr %6, i64 32
  %63 = load ptr, ptr %62, align 8, !tbaa !70
  %64 = load ptr, ptr %63, align 8, !tbaa !50
  %65 = getelementptr inbounds nuw i8, ptr %64, i64 96
  %66 = getelementptr inbounds nuw i8, ptr %55, i64 96
  %67 = load i64, ptr %65, align 8
  %68 = load i64, ptr %66, align 8
  %69 = call i64 @av_rescale_q(i64 noundef %61, i64 %67, i64 %68) #15
  %70 = icmp sgt i64 %69, %59
  br i1 %70, label %71, label %.thread

71:                                               ; preds = %52
  store i64 %69, ptr %58, align 8, !tbaa !69
  %72 = call ptr @av_frame_clone(ptr noundef nonnull %57) #14
  %.not57 = icmp eq ptr %72, null
  br i1 %.not57, label %.thread61, label %73

73:                                               ; preds = %71
  %74 = call i32 @ff_filter_frame(ptr noundef nonnull %55, ptr noundef nonnull %72) #14
  %75 = icmp sgt i32 %74, -1
  br i1 %75, label %.thread, label %.thread61

.thread:                                          ; preds = %52, %73, %49
  %76 = call i32 @ff_filter_frame(ptr noundef nonnull %11, ptr noundef %.044) #14
  br label %.thread61

.thread61:                                        ; preds = %71, %73, %.thread, %20
  %.0 = phi i32 [ %76, %.thread ], [ %74, %73 ], [ -12, %20 ], [ -12, %71 ]
  call void @llvm.lifetime.end.p0(i64 16, ptr nonnull %4) #14
  ret i32 %.0
}